; Function Attrs: nounwind uwtable
define void @Vta_ManCollectNodes_rec(ptr noundef %0, ptr noundef %1, ptr noundef %2) local_unnamed_addr #0 {
  %4 = alloca ptr, align 8
  %5 = alloca ptr, align 8
  call void @llvm.lifetime.start.p0(i64 8, ptr nonnull %4) #28
  call void @llvm.lifetime.start.p0(i64 8, ptr nonnull %5) #28
  %6 = getelementptr inbounds nuw i8, ptr %1, i64 12
  %7 = load i32, ptr %6, align 4
  %.not = icmp sgt i32 %7, -1
  br i1 %.not, label %8, label %59

8:                                                ; preds = %3
  %9 = or disjoint i32 %7, -2147483648
  store i32 %9, ptr %6, align 4
  %.not16 = icmp samesign ult i32 %7, 1073741824
  br i1 %.not16, label %21, label %10

10:                                               ; preds = %8
  %11 = load ptr, ptr %0, align 8, !tbaa !30
  %12 = getelementptr i8, ptr %11, i64 32
  %.val = load ptr, ptr %12, align 8, !tbaa !63
  %13 = load i32, ptr %1, align 4, !tbaa !64
  %14 = sext i32 %13 to i64
  %15 = getelementptr inbounds %struct.Gia_Obj_t_, ptr %.val, i64 %14
  call fastcc void @Vta_ObjPreds(ptr noundef nonnull %0, ptr noundef nonnull %1, ptr noundef %15, ptr noundef %4, ptr noundef %5)
  %16 = load ptr, ptr %4, align 8, !tbaa !85
  %.not17 = icmp eq ptr %16, null
  br i1 %.not17, label %18, label %17

17:                                               ; preds = %10
  tail call void @Vta_ManCollectNodes_rec(ptr noundef nonnull %0, ptr noundef nonnull %16, ptr noundef %2)
  br label %18

18:                                               ; preds = %17, %10
  %19 = load ptr, ptr %5, align 8, !tbaa !85
  %.not18 = icmp eq ptr %19, null
  br i1 %.not18, label %21, label %20

20:                                               ; preds = %18
  tail call void @Vta_ManCollectNodes_rec(ptr noundef nonnull %0, ptr noundef nonnull %19, ptr noundef %2)
  br label %21

21:                                               ; preds = %18, %20, %8
  %22 = getelementptr i8, ptr %0, i64 40
  %.val19 = load ptr, ptr %22, align 8, !tbaa !62
  %23 = ptrtoint ptr %1 to i64
  %24 = ptrtoint ptr %.val19 to i64
  %25 = sub i64 %23, %24
  %26 = lshr exact i64 %25, 4
  %27 = trunc i64 %26 to i32
  %28 = getelementptr inbounds nuw i8, ptr %2, i64 4
  %29 = load i32, ptr %28, align 4, !tbaa !15
  %30 = load i32, ptr %2, align 8, !tbaa !16
  %31 = icmp eq i32 %29, %30
  br i1 %31, label %32, label %.Vec_IntGrow.exit10_crit_edge.i

.Vec_IntGrow.exit10_crit_edge.i:                  ; preds = %21
  %.phi.trans.insert.i = getelementptr inbounds nuw i8, ptr %2, i64 8
  %.pre.i = load ptr, ptr %.phi.trans.insert.i, align 8, !tbaa !3
  br label %Vec_IntPush.exit

32:                                               ; preds = %21
  %33 = icmp slt i32 %29, 16
  br i1 %33, label %34, label %42

34:                                               ; preds = %32
  %35 = getelementptr inbounds nuw i8, ptr %2, i64 8
  %36 = load ptr, ptr %35, align 8, !tbaa !3
  %.not9.i.i = icmp eq ptr %36, null
  br i1 %.not9.i.i, label %39, label %37

37:                                               ; preds = %34
  %38 = tail call dereferenceable_or_null(64) ptr @realloc(ptr noundef nonnull %36, i64 noundef 64) #26
  br label %Vec_IntGrow.exit.i

39:                                               ; preds = %34
  %40 = tail call noalias dereferenceable_or_null(64) ptr @malloc(i64 noundef 64) #25
  br label %Vec_IntGrow.exit.i

Vec_IntGrow.exit.i:                               ; preds = %39, %37
  %41 = phi ptr [ %38, %37 ], [ %40, %39 ]
  store ptr %41, ptr %35, align 8, !tbaa !3
  store i32 16, ptr %2, align 8, !tbaa !16
  br label %Vec_IntPush.exit

42:                                               ; preds = %32
  %43 = shl nuw nsw i32 %29, 1
  %44 = getelementptr inbounds nuw i8, ptr %2, i64 8
  %45 = load ptr, ptr %44, align 8, !tbaa !3
  %.not9.i9.i = icmp eq ptr %45, null
  %46 = zext nneg i32 %43 to i64
  %47 = shl nuw nsw i64 %46, 2
  br i1 %.not9.i9.i, label %50, label %48

48:                                               ; preds = %42
  %49 = tail call ptr @realloc(ptr noundef nonnull %45, i64 noundef %47) #26
  br label %52

50:                                               ; preds = %42
  %51 = tail call noalias ptr @malloc(i64 noundef %47) #25
  br label %52

52:                                               ; preds = %50, %48
  %53 = phi ptr [ %49, %48 ], [ %51, %50 ]
  store ptr %53, ptr %44, align 8, !tbaa !3
  store i32 %43, ptr %2, align 8, !tbaa !16
  br label %Vec_IntPush.exit

Vec_IntPush.exit:                                 ; preds = %.Vec_IntGrow.exit10_crit_edge.i, %Vec_IntGrow.exit.i, %52
  %54 = phi ptr [ %.pre.i, %.Vec_IntGrow.exit10_crit_edge.i ], [ %53, %52 ], [ %41, %Vec_IntGrow.exit.i ]
  %55 = load i32, ptr %28, align 4, !tbaa !15
  %56 = add nsw i32 %55, 1
  store i32 %56, ptr %28, align 4, !tbaa !15
  %57 = sext i32 %55 to i64
  %58 = getelementptr inbounds i32, ptr %54, i64 %57
  store i32 %27, ptr %58, align 4, !tbaa !10
  br label %59

59:                                               ; preds = %3, %Vec_IntPush.exit
  call void @llvm.lifetime.end.p0(i64 8, ptr nonnull %5) #28
  call void @llvm.lifetime.end.p0(i64 8, ptr nonnull %4) #28
  ret void
}